target datalayout = "e-m:e-p270:32:32-p271:32:32-p272:64:64-i64:64-i128:128-f80:128-n8:16:32:64-S128"
target triple = "x86_64-pc-linux-gnu"

%"class.boost::urls::detail::path_ref" = type { ptr, ptr, i64, i64, i64 }
%"class.boost::urls::segments_base" = type { %"class.boost::urls::detail::path_ref" }
%"class.boost::urls::segments_base::iterator" = type { %"struct.boost::urls::detail::segments_iter_impl" }
%"struct.boost::urls::detail::segments_iter_impl" = type { [8 x i8], %"class.boost::urls::detail::path_ref", i64, i64, i64, i64, %"class.boost::urls::pct_string_view" }
%"class.boost::urls::pct_string_view" = type { %"class.boost::urls::grammar::string_view_base", i64 }
%"class.boost::urls::grammar::string_view_base" = type { %"class.boost::core::basic_string_view" }
%"class.boost::core::basic_string_view" = type { ptr, i64 }

; Function Attrs: mustprogress nounwind uwtable
define linkonce_odr hidden noundef zeroext i1 @_ZNK5boost4urls6detail8path_ref8alias_ofERKS2_(ptr noundef nonnull align 8 dereferenceable(40) %0, ptr noundef nonnull align 8 dereferenceable(40) %1) #2 comdat align 2 {
  %3 = alloca i1, align 1
  %4 = alloca ptr, align 8
  %5 = alloca ptr, align 8
  store ptr %0, ptr %4, align 8, !tbaa !3
  store ptr %1, ptr %5, align 8, !tbaa !3
  %6 = load ptr, ptr %4, align 8
  %7 = getelementptr inbounds nuw %"class.boost::urls::detail::path_ref", ptr %6, i32 0, i32 0
  %8 = load ptr, ptr %7, align 8, !tbaa !12
  %9 = icmp ne ptr %8, null
  br i1 %9, label %10, label %17

10:                                               ; preds = %2
  %11 = getelementptr inbounds nuw %"class.boost::urls::detail::path_ref", ptr %6, i32 0, i32 0
  %12 = load ptr, ptr %11, align 8, !tbaa !12
  %13 = load ptr, ptr %5, align 8, !tbaa !3
  %14 = getelementptr inbounds nuw %"class.boost::urls::detail::path_ref", ptr %13, i32 0, i32 0
  %15 = load ptr, ptr %14, align 8, !tbaa !12
  %16 = icmp eq ptr %12, %15
  store i1 %16, ptr %3, align 1
  br label %24

17:                                               ; preds = %2
  %18 = getelementptr inbounds nuw %"class.boost::urls::detail::path_ref", ptr %6, i32 0, i32 1
  %19 = load ptr, ptr %18, align 8, !tbaa !13
  %20 = load ptr, ptr %5, align 8, !tbaa !3
  %21 = getelementptr inbounds nuw %"class.boost::urls::detail::path_ref", ptr %20, i32 0, i32 1
  %22 = load ptr, ptr %21, align 8, !tbaa !13
  %23 = icmp eq ptr %19, %22
  store i1 %23, ptr %3, align 1
  br label %24

24:                                               ; preds = %17, %10
  %25 = load i1, ptr %3, align 1
  ret i1 %25
}

; Function Attrs: mustprogress uwtable
define noundef nonnull align 8 dereferenceable(48) ptr @_ZN5boost4urls12segments_refaSERKS1_(ptr noundef nonnull align 8 dereferenceable(48) %0, ptr noundef nonnull align 8 dereferenceable(48) %1) #4 align 2 {
  %3 = alloca ptr, align 8
  %4 = alloca ptr, align 8
  %5 = alloca %"class.boost::urls::segments_base::iterator", align 8
  %6 = alloca %"class.boost::urls::segments_base::iterator", align 8
  store ptr %0, ptr %3, align 8, !tbaa !3
  store ptr %1, ptr %4, align 8, !tbaa !3
  %7 = load ptr, ptr %3, align 8
  %8 = getelementptr inbounds nuw %"class.boost::urls::segments_base", ptr %7, i32 0, i32 0
  %9 = load ptr, ptr %4, align 8, !tbaa !3
  %10 = getelementptr inbounds nuw %"class.boost::urls::segments_base", ptr %9, i32 0, i32 0
  %11 = call noundef zeroext i1 @_ZNK5boost4urls6detail8path_ref8alias_ofERKS2_(ptr noundef nonnull align 8 dereferenceable(40) %8, ptr noundef nonnull align 8 dereferenceable(40) %10) #11
  br i1 %11, label %15, label %12

12:                                               ; preds = %2
  %13 = load ptr, ptr %4, align 8, !tbaa !3
  call void @_ZNK5boost4urls13segments_base5beginEv(ptr dead_on_unwind writable sret(%"class.boost::urls::segments_base::iterator") align 8 %5, ptr noundef nonnull align 8 dereferenceable(40) %13) #11
  %14 = load ptr, ptr %4, align 8, !tbaa !3
  call void @_ZNK5boost4urls13segments_base3endEv(ptr dead_on_unwind writable sret(%"class.boost::urls::segments_base::iterator") align 8 %6, ptr noundef nonnull align 8 dereferenceable(40) %14) #11
  call void @_ZN5boost4urls12segments_ref6assignINS0_13segments_base8iteratorEEEvT_S5_(ptr noundef nonnull align 8 dereferenceable(48) %7, ptr noundef byval(%"class.boost::urls::segments_base::iterator") align 8 %5, ptr noundef byval(%"class.boost::urls::segments_base::iterator") align 8 %6)
  br label %15

15:                                               ; preds = %12, %2
  ret ptr %7
}