; Function Attrs: mustprogress uwtable
define noundef nonnull align 8 dereferenceable(48) ptr @_ZN5boost4urls12segments_refaSERKS1_(ptr noundef nonnull returned align 8 dereferenceable(48) %0, ptr noundef nonnull align 8 dereferenceable(48) %1) local_unnamed_addr #5 align 2 {
  %3 = alloca %"class.boost::urls::segments_base::iterator", align 8
  %4 = alloca %"class.boost::urls::segments_base::iterator", align 8
  %5 = load ptr, ptr %0, align 8, !tbaa !11
  %.not.i = icmp eq ptr %5, null
  br i1 %.not.i, label %_ZNK5boost4urls6detail8path_ref8alias_ofERKS2_.exit, label %6

6:                                                ; preds = %2
  %7 = load ptr, ptr %1, align 8, !tbaa !11
  %8 = icmp eq ptr %5, %7
  br i1 %8, label %15, label %14

_ZNK5boost4urls6detail8path_ref8alias_ofERKS2_.exit: ; preds = %2
  %9 = getelementptr inbounds nuw i8, ptr %0, i64 8
  %10 = load ptr, ptr %9, align 8, !tbaa !12
  %11 = getelementptr inbounds nuw i8, ptr %1, i64 8
  %12 = load ptr, ptr %11, align 8, !tbaa !12
  %13 = icmp eq ptr %10, %12
  br i1 %13, label %15, label %14

14:                                               ; preds = %6, %_ZNK5boost4urls6detail8path_ref8alias_ofERKS2_.exit
  call void @_ZNK5boost4urls13segments_base5beginEv(ptr dead_on_unwind nonnull writable sret(%"class.boost::urls::segments_base::iterator") align 8 %3, ptr noundef nonnull align 8 dereferenceable(40) %1) #13
  call void @_ZNK5boost4urls13segments_base3endEv(ptr dead_on_unwind nonnull writable sret(%"class.boost::urls::segments_base::iterator") align 8 %4, ptr noundef nonnull align 8 dereferenceable(40) %1) #13
  call void @_ZN5boost4urls12segments_ref6assignINS0_13segments_base8iteratorEEEvT_S5_(ptr noundef nonnull align 8 dereferenceable(48) %0, ptr noundef nonnull byval(%"class.boost::urls::segments_base::iterator") align 8 %3, ptr noundef nonnull byval(%"class.boost::urls::segments_base::iterator") align 8 %4)
  br label %15

15:                                               ; preds = %6, %14, %_ZNK5boost4urls6detail8path_ref8alias_ofERKS2_.exit
  ret ptr %0
}